; Function Attrs: mustprogress nofree norecurse nosync nounwind willreturn memory(none) uwtable
define range(i32 -1, 110) i32 @TranslateErrorToAlert(i32 noundef %0) local_unnamed_addr #1 {
  switch i32 %0, label %6 [
    i32 -328, label %7
    i32 -424, label %2
    i32 -342, label %2
    i32 -352, label %2
    i32 -421, label %2
    i32 -333, label %2
    i32 -425, label %2
    i32 -505, label %2
    i32 -423, label %2
    i32 -310, label %3
    i32 -501, label %4
    i32 -422, label %4
    i32 -326, label %5
  ]

2:                                                ; preds = %1, %1, %1, %1, %1, %1, %1, %1
  br label %7

3:                                                ; preds = %1
  br label %7

4:                                                ; preds = %1, %1
  br label %7

5:                                                ; preds = %1
  br label %7

6:                                                ; preds = %1
  br label %7

7:                                                ; preds = %1, %6, %5, %4, %3, %2
  %.0 = phi i32 [ -1, %6 ], [ 70, %5 ], [ 40, %4 ], [ 109, %3 ], [ 47, %2 ], [ 50, %1 ]
  ret i32 %.0
}